target datalayout = "e-m:e-p270:32:32-p271:32:32-p272:64:64-i64:64-i128:128-f80:128-n8:16:32:64-S128"
target triple = "x86_64-unknown-linux-gnu"

%"class.google::protobuf::io::ArrayInputStream" = type { %"class.google::protobuf::io::ZeroCopyInputStream", ptr, i32, i32, i32, i32 }
%"class.google::protobuf::io::ZeroCopyInputStream" = type { ptr }

; Function Attrs: mustprogress nounwind uwtable
define linkonce_odr noundef nonnull align 4 dereferenceable(4) ptr @_ZSt3minIiERKT_S2_S2_(ptr noundef nonnull align 4 dereferenceable(4) %__a, ptr noundef nonnull align 4 dereferenceable(4) %__b) #4 comdat {
entry:
  %retval = alloca ptr, align 8
  %__a.addr = alloca ptr, align 8
  %__b.addr = alloca ptr, align 8
  store ptr %__a, ptr %__a.addr, align 8
  store ptr %__b, ptr %__b.addr, align 8
  %0 = load ptr, ptr %__b.addr, align 8
  %1 = load i32, ptr %0, align 4
  %2 = load ptr, ptr %__a.addr, align 8
  %3 = load i32, ptr %2, align 4
  %cmp = icmp slt i32 %1, %3
  br i1 %cmp, label %if.then, label %if.end

if.then:                                          ; preds = %entry
  %4 = load ptr, ptr %__b.addr, align 8
  store ptr %4, ptr %retval, align 8
  br label %return

if.end:                                           ; preds = %entry
  %5 = load ptr, ptr %__a.addr, align 8
  store ptr %5, ptr %retval, align 8
  br label %return

return:                                           ; preds = %if.end, %if.then
  %6 = load ptr, ptr %retval, align 8
  ret ptr %6
}

; Function Attrs: mustprogress uwtable
define noundef zeroext i1 @_ZN6google8protobuf2io16ArrayInputStream4NextEPPKvPi(ptr noundef nonnull align 8 dereferenceable(32) %this, ptr noundef %data, ptr noundef %size) unnamed_addr #5 align 2 {
entry:
  %retval = alloca i1, align 1
  %this.addr = alloca ptr, align 8
  %data.addr = alloca ptr, align 8
  %size.addr = alloca ptr, align 8
  %ref.tmp = alloca i32, align 4
  store ptr %this, ptr %this.addr, align 8
  store ptr %data, ptr %data.addr, align 8
  store ptr %size, ptr %size.addr, align 8
  %this1 = load ptr, ptr %this.addr, align 8
  %position_ = getelementptr inbounds %"class.google::protobuf::io::ArrayInputStream", ptr %this1, i32 0, i32 4
  %0 = load i32, ptr %position_, align 8
  %size_ = getelementptr inbounds %"class.google::protobuf::io::ArrayInputStream", ptr %this1, i32 0, i32 2
  %1 = load i32, ptr %size_, align 8
  %cmp = icmp slt i32 %0, %1
  br i1 %cmp, label %if.then, label %if.else

if.then:                                          ; preds = %entry
  %block_size_ = getelementptr inbounds %"class.google::protobuf::io::ArrayInputStream", ptr %this1, i32 0, i32 3
  %size_2 = getelementptr inbounds %"class.google::protobuf::io::ArrayInputStream", ptr %this1, i32 0, i32 2
  %2 = load i32, ptr %size_2, align 8
  %position_3 = getelementptr inbounds %"class.google::protobuf::io::ArrayInputStream", ptr %this1, i32 0, i32 4
  %3 = load i32, ptr %position_3, align 8
  %sub = sub nsw i32 %2, %3
  store i32 %sub, ptr %ref.tmp, align 4
  %call = call noundef nonnull align 4 dereferenceable(4) ptr @_ZSt3minIiERKT_S2_S2_(ptr noundef nonnull align 4 dereferenceable(4) %block_size_, ptr noundef nonnull align 4 dereferenceable(4) %ref.tmp)
  %4 = load i32, ptr %call, align 4
  %last_returned_size_ = getelementptr inbounds %"class.google::protobuf::io::ArrayInputStream", ptr %this1, i32 0, i32 5
  store i32 %4, ptr %last_returned_size_, align 4
  %data_ = getelementptr inbounds %"class.google::protobuf::io::ArrayInputStream", ptr %this1, i32 0, i32 1
  %5 = load ptr, ptr %data_, align 8
  %position_4 = getelementptr inbounds %"class.google::protobuf::io::ArrayInputStream", ptr %this1, i32 0, i32 4
  %6 = load i32, ptr %position_4, align 8
  %idx.ext = sext i32 %6 to i64
  %add.ptr = getelementptr inbounds i8, ptr %5, i64 %idx.ext
  %7 = load ptr, ptr %data.addr, align 8
  store ptr %add.ptr, ptr %7, align 8
  %last_returned_size_5 = getelementptr inbounds %"class.google::protobuf::io::ArrayInputStream", ptr %this1, i32 0, i32 5
  %8 = load i32, ptr %last_returned_size_5, align 4
  %9 = load ptr, ptr %size.addr, align 8
  store i32 %8, ptr %9, align 4
  %last_returned_size_6 = getelementptr inbounds %"class.google::protobuf::io::ArrayInputStream", ptr %this1, i32 0, i32 5
  %10 = load i32, ptr %last_returned_size_6, align 4
  %position_7 = getelementptr inbounds %"class.google::protobuf::io::ArrayInputStream", ptr %this1, i32 0, i32 4
  %11 = load i32, ptr %position_7, align 8
  %add = add nsw i32 %11, %10
  store i32 %add, ptr %position_7, align 8
  store i1 true, ptr %retval, align 1
  br label %return

if.else:                                          ; preds = %entry
  %last_returned_size_8 = getelementptr inbounds %"class.google::protobuf::io::ArrayInputStream", ptr %this1, i32 0, i32 5
  store i32 0, ptr %last_returned_size_8, align 4
  store i1 false, ptr %retval, align 1
  br label %return

return:                                           ; preds = %if.else, %if.then
  %12 = load i1, ptr %retval, align 1
  ret i1 %12
}