; Function Attrs: mustprogress nofree norecurse nosync nounwind willreturn memory(argmem: readwrite) uwtable
define noundef zeroext i1 @_ZN6google8protobuf2io16ArrayInputStream4NextEPPKvPi(ptr nocapture noundef nonnull align 8 dereferenceable(32) %this, ptr nocapture noundef writeonly %data, ptr nocapture noundef writeonly %size) unnamed_addr #4 align 2 {
entry:
  %position_ = getelementptr inbounds i8, ptr %this, i64 24
  %0 = load i32, ptr %position_, align 8
  %size_ = getelementptr inbounds i8, ptr %this, i64 16
  %1 = load i32, ptr %size_, align 8
  %cmp = icmp slt i32 %0, %1
  br i1 %cmp, label %if.then, label %if.else

if.then:                                          ; preds = %entry
  %block_size_ = getelementptr inbounds i8, ptr %this, i64 20
  %sub = sub nsw i32 %1, %0
  %2 = load i32, ptr %block_size_, align 4
  %.sroa.speculated = tail call i32 @llvm.smin.i32(i32 %sub, i32 %2)
  %last_returned_size_ = getelementptr inbounds i8, ptr %this, i64 28
  store i32 %.sroa.speculated, ptr %last_returned_size_, align 4
  %data_ = getelementptr inbounds i8, ptr %this, i64 8
  %3 = load ptr, ptr %data_, align 8
  %idx.ext = sext i32 %0 to i64
  %add.ptr = getelementptr inbounds i8, ptr %3, i64 %idx.ext
  store ptr %add.ptr, ptr %data, align 8
  %4 = load i32, ptr %last_returned_size_, align 4
  store i32 %4, ptr %size, align 4
  %5 = load i32, ptr %position_, align 8
  %add = add nsw i32 %5, %4
  store i32 %add, ptr %position_, align 8
  br label %return

if.else:                                          ; preds = %entry
  %last_returned_size_8 = getelementptr inbounds i8, ptr %this, i64 28
  store i32 0, ptr %last_returned_size_8, align 4
  br label %return

return:                                           ; preds = %if.else, %if.then
  ret i1 %cmp
}